target datalayout = "e-m:e-p270:32:32-p271:32:32-p272:64:64-i64:64-i128:128-f80:128-n8:16:32:64-S128"
target triple = "x86_64-pc-linux-gnu"

%struct._object = type { %union.anon.41, ptr }
%union.anon.41 = type { i64 }

@_Py_NoneStruct = external global %struct._object, align 8
@PyExc_OSError = external global ptr, align 8
@.str.15 = private unnamed_addr constant [18 x i8] c"pidfd_send_signal\00", align 1
@PyExc_TypeError = external global ptr, align 8
@.str.32 = private unnamed_addr constant [21 x i8] c"siginfo must be None\00", align 1

; Function Attrs: nounwind uwtable
define internal ptr @signal_pidfd_send_signal_impl(ptr noundef %0, i32 noundef %1, i32 noundef %2, ptr noundef %3, i32 noundef %4) #0 {
  %6 = alloca ptr, align 8
  %7 = alloca ptr, align 8
  %8 = alloca i32, align 4
  %9 = alloca i32, align 4
  %10 = alloca ptr, align 8
  %11 = alloca i32, align 4
  store ptr %0, ptr %7, align 8, !tbaa !179
  store i32 %1, ptr %8, align 4, !tbaa !4
  store i32 %2, ptr %9, align 4, !tbaa !4
  store ptr %3, ptr %10, align 8, !tbaa !179
  store i32 %4, ptr %11, align 4, !tbaa !4
  %12 = load ptr, ptr %10, align 8, !tbaa !179
  %13 = icmp ne ptr %12, @_Py_NoneStruct
  br i1 %13, label %14, label %16

14:                                               ; preds = %5
  %15 = load ptr, ptr @PyExc_TypeError, align 8, !tbaa !179
  call void @PyErr_SetString(ptr noundef %15, ptr noundef @.str.32)
  store ptr null, ptr %6, align 8
  br label %26

16:                                               ; preds = %5
  %17 = load i32, ptr %8, align 4, !tbaa !4
  %18 = load i32, ptr %9, align 4, !tbaa !4
  %19 = load i32, ptr %11, align 4, !tbaa !4
  %20 = call i64 (i64, ...) @syscall(i64 noundef 424, i32 noundef %17, i32 noundef %18, ptr noundef null, i32 noundef %19) #10
  %21 = icmp slt i64 %20, 0
  br i1 %21, label %22, label %25

22:                                               ; preds = %16
  %23 = load ptr, ptr @PyExc_OSError, align 8, !tbaa !179
  %24 = call ptr @PyErr_SetFromErrno(ptr noundef %23)
  store ptr null, ptr %6, align 8
  br label %26

25:                                               ; preds = %16
  store ptr @_Py_NoneStruct, ptr %6, align 8
  br label %26

26:                                               ; preds = %25, %22, %14
  %27 = load ptr, ptr %6, align 8
  ret ptr %27
}

; Function Attrs: nounwind uwtable
define internal ptr @signal_pidfd_send_signal(ptr noundef %0, ptr noundef %1, i64 noundef %2) #0 {
  %4 = alloca ptr, align 8
  %5 = alloca ptr, align 8
  %6 = alloca i64, align 8
  %7 = alloca ptr, align 8
  %8 = alloca i32, align 4
  %9 = alloca i32, align 4
  %10 = alloca ptr, align 8
  %11 = alloca i32, align 4
  store ptr %0, ptr %4, align 8, !tbaa !179
  store ptr %1, ptr %5, align 8, !tbaa !184
  store i64 %2, ptr %6, align 8, !tbaa !189
  call void @llvm.lifetime.start.p0(i64 8, ptr %7) #10
  store ptr null, ptr %7, align 8, !tbaa !179
  call void @llvm.lifetime.start.p0(i64 4, ptr %8) #10
  call void @llvm.lifetime.start.p0(i64 4, ptr %9) #10
  call void @llvm.lifetime.start.p0(i64 8, ptr %10) #10
  store ptr @_Py_NoneStruct, ptr %10, align 8, !tbaa !179
  call void @llvm.lifetime.start.p0(i64 4, ptr %11) #10
  store i32 0, ptr %11, align 4, !tbaa !4
  %12 = load i64, ptr %6, align 8, !tbaa !189
  %13 = icmp sle i64 2, %12
  br i1 %13, label %14, label %17

14:                                               ; preds = %3
  %15 = load i64, ptr %6, align 8, !tbaa !189
  %16 = icmp sle i64 %15, 4
  br i1 %16, label %22, label %17

17:                                               ; preds = %14, %3
  %18 = load i64, ptr %6, align 8, !tbaa !189
  %19 = call i32 @_PyArg_CheckPositional(ptr noundef @.str.15, i64 noundef %18, i64 noundef 2, i64 noundef 4)
  %20 = icmp ne i32 %19, 0
  br i1 %20, label %22, label %21

21:                                               ; preds = %17
  br label %74

22:                                               ; preds = %17, %14
  %23 = load ptr, ptr %5, align 8, !tbaa !184
  %24 = getelementptr ptr, ptr %23, i64 0
  %25 = load ptr, ptr %24, align 8, !tbaa !179
  %26 = call i32 @PyLong_AsInt(ptr noundef %25)
  store i32 %26, ptr %8, align 4, !tbaa !4
  %27 = load i32, ptr %8, align 4, !tbaa !4
  %28 = icmp eq i32 %27, -1
  br i1 %28, label %29, label %33

29:                                               ; preds = %22
  %30 = call ptr @PyErr_Occurred()
  %31 = icmp ne ptr %30, null
  br i1 %31, label %32, label %33

32:                                               ; preds = %29
  br label %74

33:                                               ; preds = %29, %22
  %34 = load ptr, ptr %5, align 8, !tbaa !184
  %35 = getelementptr ptr, ptr %34, i64 1
  %36 = load ptr, ptr %35, align 8, !tbaa !179
  %37 = call i32 @PyLong_AsInt(ptr noundef %36)
  store i32 %37, ptr %9, align 4, !tbaa !4
  %38 = load i32, ptr %9, align 4, !tbaa !4
  %39 = icmp eq i32 %38, -1
  br i1 %39, label %40, label %44

40:                                               ; preds = %33
  %41 = call ptr @PyErr_Occurred()
  %42 = icmp ne ptr %41, null
  br i1 %42, label %43, label %44

43:                                               ; preds = %40
  br label %74

44:                                               ; preds = %40, %33
  %45 = load i64, ptr %6, align 8, !tbaa !189
  %46 = icmp slt i64 %45, 3
  br i1 %46, label %47, label %48

47:                                               ; preds = %44
  br label %67

48:                                               ; preds = %44
  %49 = load ptr, ptr %5, align 8, !tbaa !184
  %50 = getelementptr ptr, ptr %49, i64 2
  %51 = load ptr, ptr %50, align 8, !tbaa !179
  store ptr %51, ptr %10, align 8, !tbaa !179
  %52 = load i64, ptr %6, align 8, !tbaa !189
  %53 = icmp slt i64 %52, 4
  br i1 %53, label %54, label %55

54:                                               ; preds = %48
  br label %67

55:                                               ; preds = %48
  %56 = load ptr, ptr %5, align 8, !tbaa !184
  %57 = getelementptr ptr, ptr %56, i64 3
  %58 = load ptr, ptr %57, align 8, !tbaa !179
  %59 = call i32 @PyLong_AsInt(ptr noundef %58)
  store i32 %59, ptr %11, align 4, !tbaa !4
  %60 = load i32, ptr %11, align 4, !tbaa !4
  %61 = icmp eq i32 %60, -1
  br i1 %61, label %62, label %66

62:                                               ; preds = %55
  %63 = call ptr @PyErr_Occurred()
  %64 = icmp ne ptr %63, null
  br i1 %64, label %65, label %66

65:                                               ; preds = %62
  br label %74

66:                                               ; preds = %62, %55
  br label %67

67:                                               ; preds = %66, %54, %47
  %68 = load ptr, ptr %4, align 8, !tbaa !179
  %69 = load i32, ptr %8, align 4, !tbaa !4
  %70 = load i32, ptr %9, align 4, !tbaa !4
  %71 = load ptr, ptr %10, align 8, !tbaa !179
  %72 = load i32, ptr %11, align 4, !tbaa !4
  %73 = call ptr @signal_pidfd_send_signal_impl(ptr noundef %68, i32 noundef %69, i32 noundef %70, ptr noundef %71, i32 noundef %72)
  store ptr %73, ptr %7, align 8, !tbaa !179
  br label %74

74:                                               ; preds = %67, %65, %43, %32, %21
  %75 = load ptr, ptr %7, align 8, !tbaa !179
  call void @llvm.lifetime.end.p0(i64 4, ptr %11) #10
  call void @llvm.lifetime.end.p0(i64 8, ptr %10) #10
  call void @llvm.lifetime.end.p0(i64 4, ptr %9) #10
  call void @llvm.lifetime.end.p0(i64 4, ptr %8) #10
  call void @llvm.lifetime.end.p0(i64 8, ptr %7) #10
  ret ptr %75
}