; Function Attrs: nounwind uwtable
define internal noundef ptr @signal_pidfd_send_signal(ptr readnone captures(none) %0, ptr noundef readonly captures(none) %1, i64 noundef %2) #2 {
  %4 = add i64 %2, -2
  %or.cond = icmp ult i64 %4, 3
  br i1 %or.cond, label %7, label %5

5:                                                ; preds = %3
  %6 = tail call i32 @_PyArg_CheckPositional(ptr noundef nonnull @.str.15, i64 noundef %2, i64 noundef 2, i64 noundef 4) #15
  %.not = icmp eq i32 %6, 0
  br i1 %.not, label %signal_pidfd_send_signal_impl.exit, label %7

7:                                                ; preds = %3, %5
  %8 = load ptr, ptr %1, align 8, !tbaa !176
  %9 = tail call i32 @PyLong_AsInt(ptr noundef %8) #15
  %10 = icmp eq i32 %9, -1
  br i1 %10, label %11, label %13

11:                                               ; preds = %7
  %12 = tail call ptr @PyErr_Occurred() #15
  %.not22 = icmp eq ptr %12, null
  br i1 %.not22, label %13, label %signal_pidfd_send_signal_impl.exit

13:                                               ; preds = %11, %7
  %14 = getelementptr i8, ptr %1, i64 8
  %15 = load ptr, ptr %14, align 8, !tbaa !176
  %16 = tail call i32 @PyLong_AsInt(ptr noundef %15) #15
  %17 = icmp eq i32 %16, -1
  br i1 %17, label %18, label %20

18:                                               ; preds = %13
  %19 = tail call ptr @PyErr_Occurred() #15
  %.not23 = icmp eq ptr %19, null
  br i1 %.not23, label %20, label %signal_pidfd_send_signal_impl.exit

20:                                               ; preds = %18, %13
  %21 = icmp slt i64 %2, 3
  br i1 %21, label %.thread, label %22

22:                                               ; preds = %20
  %23 = getelementptr i8, ptr %1, i64 16
  %24 = load ptr, ptr %23, align 8, !tbaa !176
  %25 = icmp eq i64 %2, 3
  br i1 %25, label %33, label %26

26:                                               ; preds = %22
  %27 = getelementptr i8, ptr %1, i64 24
  %28 = load ptr, ptr %27, align 8, !tbaa !176
  %29 = tail call i32 @PyLong_AsInt(ptr noundef %28) #15
  %30 = icmp eq i32 %29, -1
  br i1 %30, label %31, label %33

31:                                               ; preds = %26
  %32 = tail call ptr @PyErr_Occurred() #15
  %.not24 = icmp eq ptr %32, null
  br i1 %.not24, label %33, label %signal_pidfd_send_signal_impl.exit

33:                                               ; preds = %26, %31, %22
  %.0 = phi i32 [ 0, %22 ], [ -1, %31 ], [ %29, %26 ]
  %.not.i = icmp eq ptr %24, @_Py_NoneStruct
  br i1 %.not.i, label %.thread, label %34

34:                                               ; preds = %33
  %35 = load ptr, ptr @PyExc_TypeError, align 8, !tbaa !176
  tail call void @PyErr_SetString(ptr noundef %35, ptr noundef nonnull @.str.32) #15
  br label %signal_pidfd_send_signal_impl.exit

.thread:                                          ; preds = %20, %33
  %.028 = phi i32 [ %.0, %33 ], [ 0, %20 ]
  %36 = tail call i64 (i64, ...) @syscall(i64 noundef 424, i32 noundef %9, i32 noundef %16, ptr noundef null, i32 noundef %.028) #15
  %37 = icmp slt i64 %36, 0
  br i1 %37, label %38, label %signal_pidfd_send_signal_impl.exit

38:                                               ; preds = %.thread
  %39 = load ptr, ptr @PyExc_OSError, align 8, !tbaa !176
  %40 = tail call ptr @PyErr_SetFromErrno(ptr noundef %39) #15
  br label %signal_pidfd_send_signal_impl.exit

signal_pidfd_send_signal_impl.exit:               ; preds = %38, %.thread, %34, %31, %18, %11, %5
  %.019 = phi ptr [ null, %11 ], [ null, %18 ], [ null, %31 ], [ null, %5 ], [ null, %34 ], [ null, %38 ], [ @_Py_NoneStruct, %.thread ]
  ret ptr %.019
}